target datalayout = "e-m:e-p270:32:32-p271:32:32-p272:64:64-i64:64-i128:128-f80:128-n8:16:32:64-S128"
target triple = "x86_64-pc-linux-gnu"

%struct.SUNProfiler_ = type { i32, ptr, ptr, ptr, double }
%struct._sunTimerStruct = type { ptr, ptr, double, double, double, i64 }
%struct.timespec = type { i64, i64 }

; Function Attrs: nounwind uwtable
define internal i32 @sunclock_gettime_monotonic(ptr noundef %0) #0 {
  %2 = alloca ptr, align 8
  store ptr %0, ptr %2, align 8, !tbaa !54
  %3 = load ptr, ptr %2, align 8, !tbaa !54
  %4 = call i32 @clock_gettime(i32 noundef 1, ptr noundef %3) #8
  ret i32 %4
}

; Function Attrs: nounwind uwtable
define internal void @sunStopTiming(ptr noundef %0) #0 {
  %2 = alloca ptr, align 8
  %3 = alloca i64, align 8
  %4 = alloca i64, align 8
  store ptr %0, ptr %2, align 8, !tbaa !22
  call void @llvm.lifetime.start.p0(i64 8, ptr %3) #8
  store i64 0, ptr %3, align 8, !tbaa !36
  call void @llvm.lifetime.start.p0(i64 8, ptr %4) #8
  store i64 0, ptr %4, align 8, !tbaa !36
  %5 = load ptr, ptr %2, align 8, !tbaa !22
  %6 = getelementptr inbounds nuw %struct._sunTimerStruct, ptr %5, i32 0, i32 1
  %7 = load ptr, ptr %6, align 8, !tbaa !27
  %8 = call i32 @sunclock_gettime_monotonic(ptr noundef %7)
  %9 = load ptr, ptr %2, align 8, !tbaa !22
  %10 = getelementptr inbounds nuw %struct._sunTimerStruct, ptr %9, i32 0, i32 1
  %11 = load ptr, ptr %10, align 8, !tbaa !27
  %12 = getelementptr inbounds nuw %struct.timespec, ptr %11, i32 0, i32 0
  %13 = load i64, ptr %12, align 8, !tbaa !28
  %14 = load ptr, ptr %2, align 8, !tbaa !22
  %15 = getelementptr inbounds nuw %struct._sunTimerStruct, ptr %14, i32 0, i32 0
  %16 = load ptr, ptr %15, align 8, !tbaa !23
  %17 = getelementptr inbounds nuw %struct.timespec, ptr %16, i32 0, i32 0
  %18 = load i64, ptr %17, align 8, !tbaa !28
  %19 = sub nsw i64 %13, %18
  store i64 %19, ptr %3, align 8, !tbaa !36
  %20 = load ptr, ptr %2, align 8, !tbaa !22
  %21 = getelementptr inbounds nuw %struct._sunTimerStruct, ptr %20, i32 0, i32 1
  %22 = load ptr, ptr %21, align 8, !tbaa !27
  %23 = getelementptr inbounds nuw %struct.timespec, ptr %22, i32 0, i32 1
  %24 = load i64, ptr %23, align 8, !tbaa !30
  %25 = load ptr, ptr %2, align 8, !tbaa !22
  %26 = getelementptr inbounds nuw %struct._sunTimerStruct, ptr %25, i32 0, i32 0
  %27 = load ptr, ptr %26, align 8, !tbaa !23
  %28 = getelementptr inbounds nuw %struct.timespec, ptr %27, i32 0, i32 1
  %29 = load i64, ptr %28, align 8, !tbaa !30
  %30 = sub nsw i64 %24, %29
  store i64 %30, ptr %4, align 8, !tbaa !36
  %31 = load i64, ptr %4, align 8, !tbaa !36
  %32 = icmp slt i64 %31, 0
  br i1 %32, label %33, label %48

33:                                               ; preds = %1
  %34 = load i64, ptr %3, align 8, !tbaa !36
  %35 = add nsw i64 %34, -1
  store i64 %35, ptr %3, align 8, !tbaa !36
  %36 = load ptr, ptr %2, align 8, !tbaa !22
  %37 = getelementptr inbounds nuw %struct._sunTimerStruct, ptr %36, i32 0, i32 1
  %38 = load ptr, ptr %37, align 8, !tbaa !27
  %39 = getelementptr inbounds nuw %struct.timespec, ptr %38, i32 0, i32 1
  %40 = load i64, ptr %39, align 8, !tbaa !30
  %41 = add nsw i64 1000000000, %40
  %42 = load ptr, ptr %2, align 8, !tbaa !22
  %43 = getelementptr inbounds nuw %struct._sunTimerStruct, ptr %42, i32 0, i32 0
  %44 = load ptr, ptr %43, align 8, !tbaa !23
  %45 = getelementptr inbounds nuw %struct.timespec, ptr %44, i32 0, i32 1
  %46 = load i64, ptr %45, align 8, !tbaa !30
  %47 = sub nsw i64 %41, %46
  store i64 %47, ptr %4, align 8, !tbaa !36
  br label %48

48:                                               ; preds = %33, %1
  %49 = load i64, ptr %3, align 8, !tbaa !36
  %50 = sitofp i64 %49 to double
  %51 = load i64, ptr %4, align 8, !tbaa !36
  %52 = sitofp i64 %51 to double
  %53 = call double @llvm.fmuladd.f64(double %52, double 1.000000e-09, double %50)
  %54 = load ptr, ptr %2, align 8, !tbaa !22
  %55 = getelementptr inbounds nuw %struct._sunTimerStruct, ptr %54, i32 0, i32 4
  %56 = load double, ptr %55, align 8, !tbaa !31
  %57 = fadd double %56, %53
  store double %57, ptr %55, align 8, !tbaa !31
  %58 = load ptr, ptr %2, align 8, !tbaa !22
  %59 = getelementptr inbounds nuw %struct._sunTimerStruct, ptr %58, i32 0, i32 4
  %60 = load double, ptr %59, align 8, !tbaa !31
  %61 = load ptr, ptr %2, align 8, !tbaa !22
  %62 = getelementptr inbounds nuw %struct._sunTimerStruct, ptr %61, i32 0, i32 2
  store double %60, ptr %62, align 8, !tbaa !32
  %63 = load ptr, ptr %2, align 8, !tbaa !22
  %64 = getelementptr inbounds nuw %struct._sunTimerStruct, ptr %63, i32 0, i32 4
  %65 = load double, ptr %64, align 8, !tbaa !31
  %66 = load ptr, ptr %2, align 8, !tbaa !22
  %67 = getelementptr inbounds nuw %struct._sunTimerStruct, ptr %66, i32 0, i32 3
  store double %65, ptr %67, align 8, !tbaa !33
  call void @llvm.lifetime.end.p0(i64 8, ptr %4) #8
  call void @llvm.lifetime.end.p0(i64 8, ptr %3) #8
  ret void
}

; Function Attrs: nounwind uwtable
define internal void @sunStartTiming(ptr noundef %0) #0 {
  %2 = alloca ptr, align 8
  store ptr %0, ptr %2, align 8, !tbaa !22
  %3 = load ptr, ptr %2, align 8, !tbaa !22
  %4 = getelementptr inbounds nuw %struct._sunTimerStruct, ptr %3, i32 0, i32 0
  %5 = load ptr, ptr %4, align 8, !tbaa !23
  %6 = call i32 @sunclock_gettime_monotonic(ptr noundef %5)
  ret void
}

; Function Attrs: nounwind uwtable
define i32 @SUNProfiler_End(ptr noundef %0, ptr noundef %1) #0 {
  %3 = alloca i32, align 4
  %4 = alloca ptr, align 8
  %5 = alloca ptr, align 8
  %6 = alloca i32, align 4
  %7 = alloca ptr, align 8
  %8 = alloca i32, align 4
  store ptr %0, ptr %4, align 8, !tbaa !12
  store ptr %1, ptr %5, align 8, !tbaa !7
  call void @llvm.lifetime.start.p0(i64 4, ptr %6) #8
  call void @llvm.lifetime.start.p0(i64 8, ptr %7) #8
  %9 = load ptr, ptr %4, align 8, !tbaa !12
  %10 = icmp ne ptr %9, null
  br i1 %10, label %12, label %11

11:                                               ; preds = %2
  store i32 -9999, ptr %3, align 4
  store i32 1, ptr %8, align 4
  br label %40

12:                                               ; preds = %2
  %13 = load ptr, ptr %4, align 8, !tbaa !12
  %14 = getelementptr inbounds nuw %struct.SUNProfiler_, ptr %13, i32 0, i32 3
  %15 = load ptr, ptr %14, align 8, !tbaa !14
  call void @sunStartTiming(ptr noundef %15)
  %16 = load ptr, ptr %4, align 8, !tbaa !12
  %17 = getelementptr inbounds nuw %struct.SUNProfiler_, ptr %16, i32 0, i32 2
  %18 = load ptr, ptr %17, align 8, !tbaa !37
  %19 = load ptr, ptr %5, align 8, !tbaa !7
  %20 = call i32 @SUNHashMap_GetValue(ptr noundef %18, ptr noundef %19, ptr noundef %7)
  store i32 %20, ptr %6, align 4, !tbaa !3
  %21 = load i32, ptr %6, align 4, !tbaa !3
  %22 = icmp ne i32 %21, 0
  br i1 %22, label %23, label %35

23:                                               ; preds = %12
  %24 = load ptr, ptr %4, align 8, !tbaa !12
  %25 = getelementptr inbounds nuw %struct.SUNProfiler_, ptr %24, i32 0, i32 3
  %26 = load ptr, ptr %25, align 8, !tbaa !14
  call void @sunStopTiming(ptr noundef %26)
  %27 = load i32, ptr %6, align 4, !tbaa !3
  %28 = icmp eq i32 %27, -1
  br i1 %28, label %29, label %30

29:                                               ; preds = %23
  store i32 -9982, ptr %3, align 4
  store i32 1, ptr %8, align 4
  br label %40

30:                                               ; preds = %23
  %31 = load i32, ptr %6, align 4, !tbaa !3
  %32 = icmp eq i32 %31, -2
  br i1 %32, label %33, label %34

33:                                               ; preds = %30
  store i32 -9980, ptr %3, align 4
  store i32 1, ptr %8, align 4
  br label %40

34:                                               ; preds = %30
  br label %35

35:                                               ; preds = %34, %12
  %36 = load ptr, ptr %7, align 8, !tbaa !22
  call void @sunStopTiming(ptr noundef %36)
  %37 = load ptr, ptr %4, align 8, !tbaa !12
  %38 = getelementptr inbounds nuw %struct.SUNProfiler_, ptr %37, i32 0, i32 3
  %39 = load ptr, ptr %38, align 8, !tbaa !14
  call void @sunStopTiming(ptr noundef %39)
  store i32 0, ptr %3, align 4
  store i32 1, ptr %8, align 4
  br label %40

40:                                               ; preds = %35, %33, %29, %11
  call void @llvm.lifetime.end.p0(i64 8, ptr %7) #8
  call void @llvm.lifetime.end.p0(i64 4, ptr %6) #8
  %41 = load i32, ptr %3, align 4
  ret i32 %41
}