; Function Attrs: nounwind uwtable
define range(i32 -9999, 1) i32 @SUNProfiler_End(ptr noundef readonly captures(address_is_null) %0, ptr noundef %1) local_unnamed_addr #0 {
  %3 = alloca ptr, align 8
  call void @llvm.lifetime.start.p0(i64 8, ptr nonnull %3) #18
  %.not = icmp eq ptr %0, null
  br i1 %.not, label %89, label %4

4:                                                ; preds = %2
  %5 = getelementptr inbounds nuw i8, ptr %0, i64 24
  %6 = load ptr, ptr %5, align 8, !tbaa !14
  %.val = load ptr, ptr %6, align 8, !tbaa !8
  %7 = tail call i32 @clock_gettime(i32 noundef 1, ptr noundef %.val) #18
  %8 = getelementptr inbounds nuw i8, ptr %0, i64 16
  %9 = load ptr, ptr %8, align 8, !tbaa !30
  %10 = call i32 @SUNHashMap_GetValue(ptr noundef %9, ptr noundef %1, ptr noundef nonnull %3) #18
  %.not11 = icmp eq i32 %10, 0
  br i1 %.not11, label %38, label %11

11:                                               ; preds = %4
  %12 = load ptr, ptr %5, align 8, !tbaa !14
  %13 = getelementptr inbounds nuw i8, ptr %12, i64 8
  %14 = load ptr, ptr %13, align 8, !tbaa !13
  %15 = call i32 @clock_gettime(i32 noundef 1, ptr noundef %14) #18
  %16 = load ptr, ptr %13, align 8, !tbaa !13
  %17 = load i64, ptr %16, align 8, !tbaa !23
  %18 = load ptr, ptr %12, align 8, !tbaa !8
  %19 = load i64, ptr %18, align 8, !tbaa !23
  %20 = sub i64 %17, %19
  %21 = getelementptr inbounds nuw i8, ptr %16, i64 8
  %22 = load i64, ptr %21, align 8, !tbaa !25
  %23 = getelementptr inbounds nuw i8, ptr %18, i64 8
  %24 = load i64, ptr %23, align 8, !tbaa !25
  %25 = sub nsw i64 %22, %24
  %26 = icmp slt i64 %25, 0
  %27 = add nsw i64 %22, 1000000000
  %28 = sub i64 %27, %24
  %.lobit.i = ashr i64 %25, 63
  %.015.i = add nsw i64 %20, %.lobit.i
  %.0.i = select i1 %26, i64 %28, i64 %25
  %29 = sitofp i64 %.015.i to double
  %30 = sitofp i64 %.0.i to double
  %31 = call double @llvm.fmuladd.f64(double %30, double 1.000000e-09, double %29)
  %32 = getelementptr inbounds nuw i8, ptr %12, i64 32
  %33 = load double, ptr %32, align 8, !tbaa !26
  %34 = fadd double %33, %31
  store double %34, ptr %32, align 8, !tbaa !26
  %35 = getelementptr inbounds nuw i8, ptr %12, i64 16
  store double %34, ptr %35, align 8, !tbaa !27
  %36 = getelementptr inbounds nuw i8, ptr %12, i64 24
  store double %34, ptr %36, align 8, !tbaa !28
  switch i32 %10, label %38 [
    i32 -1, label %89
    i32 -2, label %37
  ]

37:                                               ; preds = %11
  br label %89

38:                                               ; preds = %11, %4
  %39 = load ptr, ptr %3, align 8, !tbaa !29
  %40 = getelementptr inbounds nuw i8, ptr %39, i64 8
  %41 = load ptr, ptr %40, align 8, !tbaa !13
  %42 = call i32 @clock_gettime(i32 noundef 1, ptr noundef %41) #18
  %43 = load ptr, ptr %40, align 8, !tbaa !13
  %44 = load i64, ptr %43, align 8, !tbaa !23
  %45 = load ptr, ptr %39, align 8, !tbaa !8
  %46 = load i64, ptr %45, align 8, !tbaa !23
  %47 = sub i64 %44, %46
  %48 = getelementptr inbounds nuw i8, ptr %43, i64 8
  %49 = load i64, ptr %48, align 8, !tbaa !25
  %50 = getelementptr inbounds nuw i8, ptr %45, i64 8
  %51 = load i64, ptr %50, align 8, !tbaa !25
  %52 = sub nsw i64 %49, %51
  %53 = icmp slt i64 %52, 0
  %54 = add nsw i64 %49, 1000000000
  %55 = sub i64 %54, %51
  %.lobit.i12 = ashr i64 %52, 63
  %.015.i13 = add nsw i64 %47, %.lobit.i12
  %.0.i14 = select i1 %53, i64 %55, i64 %52
  %56 = sitofp i64 %.015.i13 to double
  %57 = sitofp i64 %.0.i14 to double
  %58 = call double @llvm.fmuladd.f64(double %57, double 1.000000e-09, double %56)
  %59 = getelementptr inbounds nuw i8, ptr %39, i64 32
  %60 = load double, ptr %59, align 8, !tbaa !26
  %61 = fadd double %60, %58
  store double %61, ptr %59, align 8, !tbaa !26
  %62 = getelementptr inbounds nuw i8, ptr %39, i64 16
  store double %61, ptr %62, align 8, !tbaa !27
  %63 = getelementptr inbounds nuw i8, ptr %39, i64 24
  store double %61, ptr %63, align 8, !tbaa !28
  %64 = load ptr, ptr %5, align 8, !tbaa !14
  %65 = getelementptr inbounds nuw i8, ptr %64, i64 8
  %66 = load ptr, ptr %65, align 8, !tbaa !13
  %67 = call i32 @clock_gettime(i32 noundef 1, ptr noundef %66) #18
  %68 = load ptr, ptr %65, align 8, !tbaa !13
  %69 = load i64, ptr %68, align 8, !tbaa !23
  %70 = load ptr, ptr %64, align 8, !tbaa !8
  %71 = load i64, ptr %70, align 8, !tbaa !23
  %72 = sub i64 %69, %71
  %73 = getelementptr inbounds nuw i8, ptr %68, i64 8
  %74 = load i64, ptr %73, align 8, !tbaa !25
  %75 = getelementptr inbounds nuw i8, ptr %70, i64 8
  %76 = load i64, ptr %75, align 8, !tbaa !25
  %77 = sub nsw i64 %74, %76
  %78 = icmp slt i64 %77, 0
  %79 = add nsw i64 %74, 1000000000
  %80 = sub i64 %79, %76
  %.lobit.i15 = ashr i64 %77, 63
  %.015.i16 = add nsw i64 %72, %.lobit.i15
  %.0.i17 = select i1 %78, i64 %80, i64 %77
  %81 = sitofp i64 %.015.i16 to double
  %82 = sitofp i64 %.0.i17 to double
  %83 = call double @llvm.fmuladd.f64(double %82, double 1.000000e-09, double %81)
  %84 = getelementptr inbounds nuw i8, ptr %64, i64 32
  %85 = load double, ptr %84, align 8, !tbaa !26
  %86 = fadd double %85, %83
  store double %86, ptr %84, align 8, !tbaa !26
  %87 = getelementptr inbounds nuw i8, ptr %64, i64 16
  store double %86, ptr %87, align 8, !tbaa !27
  %88 = getelementptr inbounds nuw i8, ptr %64, i64 24
  store double %86, ptr %88, align 8, !tbaa !28
  br label %89

89:                                               ; preds = %11, %2, %38, %37
  %.0 = phi i32 [ -9980, %37 ], [ 0, %38 ], [ -9999, %2 ], [ -9982, %11 ]
  call void @llvm.lifetime.end.p0(i64 8, ptr nonnull %3) #18
  ret i32 %.0
}